; Function Attrs: mustprogress uwtable
define dso_local noundef nonnull align 8 dereferenceable(8) ptr @_ZN5vcpkg4Json6Object6insertENS_10StringViewEONSt7__cxx1112basic_stringIcSt11char_traitsIcESaIcEEE(ptr noundef nonnull align 8 dereferenceable(24) %0, ptr %1, i64 %2, ptr noundef nonnull align 8 dereferenceable(32) %3) local_unnamed_addr #8 align 2 personality ptr @__gxx_personality_v0 {
  %5 = alloca %"struct.vcpkg::Json::Value", align 8
  call void @_ZN5vcpkg4Json5Value6stringEONSt7__cxx1112basic_stringIcSt11char_traitsIcESaIcEEE(ptr dead_on_unwind nonnull writable sret(%"struct.vcpkg::Json::Value") align 8 %5, ptr noundef nonnull align 8 dereferenceable(32) %3) #26
  %6 = invoke noundef nonnull align 8 dereferenceable(8) ptr @_ZN5vcpkg4Json6Object6insertENS_10StringViewEONS0_5ValueE(ptr noundef nonnull align 8 dereferenceable(24) %0, ptr %1, i64 %2, ptr noundef nonnull align 8 dereferenceable(8) %5)
          to label %7 unwind label %10

7:                                                ; preds = %4
  %8 = load ptr, ptr %5, align 8
  %.not.i.i = icmp eq ptr %8, null
  br i1 %.not.i.i, label %_ZN5vcpkg4Json5ValueD2Ev.exit, label %9

9:                                                ; preds = %7
  call void @_ZNKSt14default_deleteIN5vcpkg4Json4impl9ValueImplEEclEPS3_(ptr noundef nonnull align 1 dereferenceable(1) %5, ptr noundef nonnull %8) #31
  br label %_ZN5vcpkg4Json5ValueD2Ev.exit

_ZN5vcpkg4Json5ValueD2Ev.exit:                    ; preds = %7, %9
  ret ptr %6

10:                                               ; preds = %4
  %11 = landingpad { ptr, i32 }
          cleanup
  %12 = load ptr, ptr %5, align 8
  %.not.i.i5 = icmp eq ptr %12, null
  br i1 %.not.i.i5, label %_ZN5vcpkg4Json5ValueD2Ev.exit6, label %13

13:                                               ; preds = %10
  call void @_ZNKSt14default_deleteIN5vcpkg4Json4impl9ValueImplEEclEPS3_(ptr noundef nonnull align 1 dereferenceable(1) %5, ptr noundef nonnull %12) #31
  br label %_ZN5vcpkg4Json5ValueD2Ev.exit6

_ZN5vcpkg4Json5ValueD2Ev.exit6:                   ; preds = %10, %13
  resume { ptr, i32 } %11
}